target datalayout = "e-m:e-p270:32:32-p271:32:32-p272:64:64-i64:64-i128:128-f80:128-n8:16:32:64-S128"
target triple = "x86_64-pc-linux-gnu"

%struct.sockaddr_in = type { i16, i16, %struct.in_addr, [8 x i8] }
%struct.in_addr = type { i32 }
%union.__CONST_SOCKADDR_ARG = type { ptr }
%struct.sockaddr = type { i16, [14 x i8] }

; Function Attrs: nounwind uwtable
define i32 @NET_Bind(i32 noundef %0, ptr noundef %1, i32 noundef %2) #0 {
  %4 = alloca i32, align 4
  %5 = alloca i32, align 4
  %6 = alloca ptr, align 8
  %7 = alloca i32, align 4
  %8 = alloca i32, align 4
  %9 = alloca %union.__CONST_SOCKADDR_ARG, align 8
  store i32 %0, ptr %5, align 4
  store ptr %1, ptr %6, align 8
  store i32 %2, ptr %7, align 4
  %10 = load ptr, ptr %6, align 8
  %11 = getelementptr inbounds %struct.sockaddr, ptr %10, i32 0, i32 0
  %12 = load i16, ptr %11, align 4
  %13 = zext i16 %12 to i32
  %14 = icmp eq i32 %13, 2
  br i1 %14, label %15, label %26

15:                                               ; preds = %3
  %16 = load ptr, ptr %6, align 8
  %17 = getelementptr inbounds %struct.sockaddr_in, ptr %16, i32 0, i32 2
  %18 = getelementptr inbounds %struct.in_addr, ptr %17, i32 0, i32 0
  %19 = load i32, ptr %18, align 4
  %20 = call i32 @ntohl(i32 noundef %19) #8
  %21 = and i32 %20, 2130706687
  %22 = icmp eq i32 %21, 2130706687
  br i1 %22, label %23, label %25

23:                                               ; preds = %15
  %24 = call ptr @__errno_location() #8
  store i32 99, ptr %24, align 4
  store i32 -1, ptr %4, align 4
  br label %34

25:                                               ; preds = %15
  br label %26

26:                                               ; preds = %25, %3
  %27 = load i32, ptr %5, align 4
  %28 = load ptr, ptr %6, align 8
  store ptr %28, ptr %9, align 8
  %29 = load i32, ptr %7, align 4
  %30 = getelementptr inbounds %union.__CONST_SOCKADDR_ARG, ptr %9, i32 0, i32 0
  %31 = load ptr, ptr %30, align 8
  %32 = call i32 @bind(i32 noundef %27, ptr %31, i32 noundef %29) #9
  store i32 %32, ptr %8, align 4
  %33 = load i32, ptr %8, align 4
  store i32 %33, ptr %4, align 4
  br label %34

34:                                               ; preds = %26, %23
  %35 = load i32, ptr %4, align 4
  ret i32 %35
}