; Function Attrs: nounwind uwtable
define i32 @NET_Bind(i32 noundef %0, ptr noundef %1, i32 noundef %2) local_unnamed_addr #0 {
  %4 = load i16, ptr %1, align 4
  %5 = icmp eq i16 %4, 2
  br i1 %5, label %6, label %14

6:                                                ; preds = %3
  %7 = getelementptr inbounds i8, ptr %1, i64 4
  %8 = load i32, ptr %7, align 4
  %9 = tail call i32 @ntohl(i32 noundef %8) #14
  %10 = and i32 %9, 2130706687
  %11 = icmp eq i32 %10, 2130706687
  br i1 %11, label %12, label %14

12:                                               ; preds = %6
  %13 = tail call ptr @__errno_location() #14
  store i32 99, ptr %13, align 4
  br label %16

14:                                               ; preds = %6, %3
  %15 = tail call i32 @bind(i32 noundef %0, ptr nonnull %1, i32 noundef %2) #13
  br label %16

16:                                               ; preds = %14, %12
  %.0 = phi i32 [ -1, %12 ], [ %15, %14 ]
  ret i32 %.0
}